target datalayout = "e-m:e-p270:32:32-p271:32:32-p272:64:64-i64:64-i128:128-f80:128-n8:16:32:64-S128"
target triple = "x86_64-pc-linux-gnu"

%struct.PLpgSQL_execstate = type { ptr, ptr, ptr, i64, i8, i32, i32, i8, i8, i8, i8, ptr, ptr, ptr, ptr, ptr, ptr, ptr, i32, i32, ptr, ptr, ptr, ptr, ptr, ptr, ptr, ptr, ptr, ptr, i64, ptr, ptr, ptr, ptr, ptr }
%struct.PLpgSQL_var = type { i32, i32, ptr, i32, i8, i8, ptr, ptr, ptr, i32, i32, i64, i8, i8, i32 }
%struct.varattrib_1b = type { i8, [0 x i8] }
%struct.varattrib_1b_e = type { i8, i8, [0 x i8] }
%struct.ExprContext = type { i32, ptr, ptr, ptr, ptr, ptr, ptr, ptr, ptr, ptr, i64, i8, i64, i8, ptr, ptr, ptr, ptr }
%struct.ParamListInfoData = type { ptr, ptr, ptr, ptr, ptr, ptr, ptr, i32, [0 x %struct.ParamExternData] }
%struct.ParamExternData = type { i64, i8, i16, i32 }
%struct.ExprEvalStep = type { i64, ptr, ptr, %union.anon.1 }
%union.anon.1 = type { %struct.anon.26 }
%struct.anon.26 = type { ptr, ptr, i32, i32, ptr, ptr }
%struct.anon.15 = type { ptr, ptr, ptr, i32, i32 }

; Function Attrs: inlinehint nounwind uwtable
define internal ptr @DatumGetPointer(i64 noundef %0) #2 {
  %2 = alloca i64, align 8
  store i64 %0, ptr %2, align 8
  %3 = load i64, ptr %2, align 8
  %4 = inttoptr i64 %3 to ptr
  ret ptr %4
}

; Function Attrs: nounwind uwtable
define internal void @plpgsql_param_eval_var_transfer(ptr noundef %0, ptr noundef %1, ptr noundef %2) #0 {
  %4 = alloca ptr, align 8
  %5 = alloca ptr, align 8
  %6 = alloca ptr, align 8
  %7 = alloca ptr, align 8
  %8 = alloca ptr, align 8
  %9 = alloca i32, align 4
  %10 = alloca ptr, align 8
  store ptr %0, ptr %4, align 8
  store ptr %1, ptr %5, align 8
  store ptr %2, ptr %6, align 8
  call void @llvm.lifetime.start.p0(i64 8, ptr %7) #12
  call void @llvm.lifetime.start.p0(i64 8, ptr %8) #12
  call void @llvm.lifetime.start.p0(i64 4, ptr %9) #12
  %11 = load ptr, ptr %5, align 8
  %12 = getelementptr inbounds nuw %struct.ExprEvalStep, ptr %11, i32 0, i32 3
  %13 = getelementptr inbounds nuw %struct.anon.15, ptr %12, i32 0, i32 3
  %14 = load i32, ptr %13, align 8
  %15 = sub i32 %14, 1
  store i32 %15, ptr %9, align 4
  call void @llvm.lifetime.start.p0(i64 8, ptr %10) #12
  %16 = load ptr, ptr %6, align 8
  %17 = getelementptr inbounds nuw %struct.ExprContext, ptr %16, i32 0, i32 7
  %18 = load ptr, ptr %17, align 8
  store ptr %18, ptr %7, align 8
  %19 = load ptr, ptr %7, align 8
  %20 = getelementptr inbounds nuw %struct.ParamListInfoData, ptr %19, i32 0, i32 1
  %21 = load ptr, ptr %20, align 8
  store ptr %21, ptr %8, align 8
  %22 = load ptr, ptr %8, align 8
  %23 = getelementptr inbounds nuw %struct.PLpgSQL_execstate, ptr %22, i32 0, i32 20
  %24 = load ptr, ptr %23, align 8
  %25 = load i32, ptr %9, align 4
  %26 = sext i32 %25 to i64
  %27 = getelementptr inbounds ptr, ptr %24, i64 %26
  %28 = load ptr, ptr %27, align 8
  store ptr %28, ptr %10, align 8
  %29 = load ptr, ptr %10, align 8
  %30 = getelementptr inbounds nuw %struct.PLpgSQL_var, ptr %29, i32 0, i32 12
  %31 = load i8, ptr %30, align 8, !range !3, !noundef !4
  %32 = trunc i8 %31 to i1
  br i1 %32, label %73, label %33

33:                                               ; preds = %3
  %34 = load ptr, ptr %10, align 8
  %35 = getelementptr inbounds nuw %struct.PLpgSQL_var, ptr %34, i32 0, i32 11
  %36 = load i64, ptr %35, align 8
  %37 = call ptr @DatumGetPointer(i64 noundef %36)
  %38 = getelementptr inbounds nuw %struct.varattrib_1b, ptr %37, i32 0, i32 0
  %39 = load i8, ptr %38, align 1
  %40 = zext i8 %39 to i32
  %41 = icmp eq i32 %40, 1
  br i1 %41, label %42, label %73

42:                                               ; preds = %33
  %43 = load ptr, ptr %10, align 8
  %44 = getelementptr inbounds nuw %struct.PLpgSQL_var, ptr %43, i32 0, i32 11
  %45 = load i64, ptr %44, align 8
  %46 = call ptr @DatumGetPointer(i64 noundef %45)
  %47 = getelementptr inbounds nuw %struct.varattrib_1b_e, ptr %46, i32 0, i32 1
  %48 = load i8, ptr %47, align 1
  %49 = zext i8 %48 to i32
  %50 = icmp eq i32 %49, 3
  br i1 %50, label %51, label %73

51:                                               ; preds = %42
  %52 = load ptr, ptr %10, align 8
  %53 = getelementptr inbounds nuw %struct.PLpgSQL_var, ptr %52, i32 0, i32 11
  %54 = load i64, ptr %53, align 8
  %55 = load ptr, ptr %8, align 8
  %56 = getelementptr inbounds nuw %struct.PLpgSQL_execstate, ptr %55, i32 0, i32 31
  %57 = load ptr, ptr %56, align 8
  %58 = getelementptr inbounds nuw %struct.ExprContext, ptr %57, i32 0, i32 5
  %59 = load ptr, ptr %58, align 8
  %60 = call i64 @TransferExpandedObject(i64 noundef %54, ptr noundef %59)
  %61 = load ptr, ptr %5, align 8
  %62 = getelementptr inbounds nuw %struct.ExprEvalStep, ptr %61, i32 0, i32 1
  %63 = load ptr, ptr %62, align 8
  store i64 %60, ptr %63, align 8
  %64 = load ptr, ptr %5, align 8
  %65 = getelementptr inbounds nuw %struct.ExprEvalStep, ptr %64, i32 0, i32 2
  %66 = load ptr, ptr %65, align 8
  store i8 0, ptr %66, align 1
  %67 = load ptr, ptr %10, align 8
  %68 = getelementptr inbounds nuw %struct.PLpgSQL_var, ptr %67, i32 0, i32 11
  store i64 0, ptr %68, align 8
  %69 = load ptr, ptr %10, align 8
  %70 = getelementptr inbounds nuw %struct.PLpgSQL_var, ptr %69, i32 0, i32 12
  store i8 1, ptr %70, align 8
  %71 = load ptr, ptr %10, align 8
  %72 = getelementptr inbounds nuw %struct.PLpgSQL_var, ptr %71, i32 0, i32 13
  store i8 0, ptr %72, align 1
  br label %88

73:                                               ; preds = %42, %33, %3
  %74 = load ptr, ptr %10, align 8
  %75 = getelementptr inbounds nuw %struct.PLpgSQL_var, ptr %74, i32 0, i32 11
  %76 = load i64, ptr %75, align 8
  %77 = load ptr, ptr %5, align 8
  %78 = getelementptr inbounds nuw %struct.ExprEvalStep, ptr %77, i32 0, i32 1
  %79 = load ptr, ptr %78, align 8
  store i64 %76, ptr %79, align 8
  %80 = load ptr, ptr %10, align 8
  %81 = getelementptr inbounds nuw %struct.PLpgSQL_var, ptr %80, i32 0, i32 12
  %82 = load i8, ptr %81, align 8, !range !3, !noundef !4
  %83 = trunc i8 %82 to i1
  %84 = load ptr, ptr %5, align 8
  %85 = getelementptr inbounds nuw %struct.ExprEvalStep, ptr %84, i32 0, i32 2
  %86 = load ptr, ptr %85, align 8
  %87 = zext i1 %83 to i8
  store i8 %87, ptr %86, align 1
  br label %88

88:                                               ; preds = %73, %51
  call void @llvm.lifetime.end.p0(i64 8, ptr %10) #12
  call void @llvm.lifetime.end.p0(i64 4, ptr %9) #12
  call void @llvm.lifetime.end.p0(i64 8, ptr %8) #12
  call void @llvm.lifetime.end.p0(i64 8, ptr %7) #12
  ret void
}