; Function Attrs: nounwind uwtable
define internal void @plpgsql_param_eval_var_transfer(ptr readnone captures(none) %0, ptr noundef readonly captures(none) %1, ptr noundef readonly captures(none) %2) #0 {
  %4 = getelementptr inbounds nuw i8, ptr %1, i64 48
  %5 = load i32, ptr %4, align 8
  %6 = add i32 %5, -1
  %7 = getelementptr inbounds nuw i8, ptr %2, i64 56
  %8 = load ptr, ptr %7, align 8
  %9 = getelementptr inbounds nuw i8, ptr %8, i64 8
  %10 = load ptr, ptr %9, align 8
  %11 = getelementptr inbounds nuw i8, ptr %10, i64 112
  %12 = load ptr, ptr %11, align 8
  %13 = sext i32 %6 to i64
  %14 = getelementptr inbounds ptr, ptr %12, i64 %13
  %15 = load ptr, ptr %14, align 8
  %16 = getelementptr inbounds nuw i8, ptr %15, i64 64
  %17 = load i8, ptr %16, align 8, !range !3, !noundef !4
  %18 = trunc nuw i8 %17 to i1
  %.phi.trans.insert = getelementptr inbounds nuw i8, ptr %15, i64 56
  %.pre = load i64, ptr %.phi.trans.insert, align 8
  br i1 %18, label %._crit_edge, label %19

19:                                               ; preds = %3
  %20 = inttoptr i64 %.pre to ptr
  %21 = load i8, ptr %20, align 1
  %22 = icmp eq i8 %21, 1
  br i1 %22, label %23, label %._crit_edge

23:                                               ; preds = %19
  %24 = getelementptr inbounds nuw i8, ptr %20, i64 1
  %25 = load i8, ptr %24, align 1
  %26 = icmp eq i8 %25, 3
  br i1 %26, label %27, label %._crit_edge

27:                                               ; preds = %23
  %28 = getelementptr inbounds nuw i8, ptr %10, i64 200
  %29 = load ptr, ptr %28, align 8
  %30 = getelementptr inbounds nuw i8, ptr %29, i64 40
  %31 = load ptr, ptr %30, align 8
  %32 = tail call i64 @TransferExpandedObject(i64 noundef %.pre, ptr noundef %31) #12
  %33 = getelementptr inbounds nuw i8, ptr %1, i64 8
  %34 = load ptr, ptr %33, align 8
  store i64 %32, ptr %34, align 8
  %35 = getelementptr inbounds nuw i8, ptr %1, i64 16
  %36 = load ptr, ptr %35, align 8
  store i8 0, ptr %36, align 1
  store i64 0, ptr %.phi.trans.insert, align 8
  store i8 1, ptr %16, align 8
  %37 = getelementptr inbounds nuw i8, ptr %15, i64 65
  store i8 0, ptr %37, align 1
  br label %43

._crit_edge:                                      ; preds = %3, %23, %19
  %38 = getelementptr inbounds nuw i8, ptr %1, i64 8
  %39 = load ptr, ptr %38, align 8
  store i64 %.pre, ptr %39, align 8
  %40 = load i8, ptr %16, align 8, !range !3, !noundef !4
  %41 = getelementptr inbounds nuw i8, ptr %1, i64 16
  %42 = load ptr, ptr %41, align 8
  store i8 %40, ptr %42, align 1
  br label %43

43:                                               ; preds = %._crit_edge, %27
  ret void
}